target datalayout = "e-m:e-p270:32:32-p271:32:32-p272:64:64-i64:64-i128:128-f80:128-n8:16:32:64-S128"
target triple = "x86_64-pc-linux-gnu"

%class.Register = type { i32 }
%class.StubCodeMark = type { ptr, ptr }
%class.StubCodeGenerator = type { ptr, i8, ptr }
%class.AbstractAssembler = type { ptr, ptr, ptr }
%class.CodeSection = type { ptr, ptr, ptr, ptr, ptr, ptr, ptr, ptr, i8, i8, i32, i8, ptr }

@CodeEntryAlignment = external global i64, align 8
@.str = private unnamed_addr constant [13 x i8] c"StubRoutines\00", align 1
@.str.4 = private unnamed_addr constant [28 x i8] c"intpoly_montgomeryMult_P256\00", align 1
@_ZL7c_rarg0 = internal constant %class.Register { i32 7 }, align 4
@_ZL7c_rarg1 = internal constant %class.Register { i32 6 }, align 4
@_ZL7c_rarg2 = internal constant %class.Register { i32 2 }, align 4
@_ZL2r9 = internal constant %class.Register { i32 9 }, align 4

; Function Attrs: mustprogress nounwind uwtable
define linkonce_odr hidden noundef ptr @_ZNK11CodeSection3endEv(ptr noundef nonnull align 8 dereferenceable(88) %0) #1 comdat align 2 {
  %2 = alloca ptr, align 8
  store ptr %0, ptr %2, align 8
  %3 = load ptr, ptr %2, align 8
  %4 = getelementptr inbounds %class.CodeSection, ptr %3, i32 0, i32 2
  %5 = load ptr, ptr %4, align 8
  ret ptr %5
}

; Function Attrs: mustprogress nounwind uwtable
define linkonce_odr hidden noundef ptr @_ZNK17AbstractAssembler12code_sectionEv(ptr noundef nonnull align 8 dereferenceable(24) %0) #1 comdat align 2 {
  %2 = alloca ptr, align 8
  store ptr %0, ptr %2, align 8
  %3 = load ptr, ptr %2, align 8
  %4 = getelementptr inbounds %class.AbstractAssembler, ptr %3, i32 0, i32 1
  %5 = load ptr, ptr %4, align 8
  ret ptr %5
}

; Function Attrs: mustprogress nounwind uwtable
define linkonce_odr hidden noundef ptr @_ZNK17AbstractAssembler2pcEv(ptr noundef nonnull align 8 dereferenceable(24) %0) #1 comdat align 2 {
  %2 = alloca ptr, align 8
  store ptr %0, ptr %2, align 8
  %3 = load ptr, ptr %2, align 8
  %4 = call noundef ptr @_ZNK17AbstractAssembler12code_sectionEv(ptr noundef nonnull align 8 dereferenceable(24) %3)
  %5 = call noundef ptr @_ZNK11CodeSection3endEv(ptr noundef nonnull align 8 dereferenceable(88) %4)
  ret ptr %5
}

; Function Attrs: mustprogress nounwind uwtable
define hidden noundef ptr @_ZN13StubGenerator36generate_intpoly_montgomeryMult_P256Ev(ptr noundef nonnull align 8 dereferenceable(24) %0) #1 align 2 {
  %2 = alloca ptr, align 8
  %3 = alloca %class.StubCodeMark, align 8
  %4 = alloca ptr, align 8
  %5 = alloca %class.Register, align 4
  %6 = alloca %class.Register, align 4
  %7 = alloca %class.Register, align 4
  %8 = alloca %class.Register, align 4
  %9 = alloca %class.Register, align 4
  %10 = alloca %class.Register, align 4
  %11 = alloca %class.Register, align 4
  %12 = alloca %class.Register, align 4
  store ptr %0, ptr %2, align 8
  %13 = load ptr, ptr %2, align 8
  %14 = getelementptr inbounds %class.StubCodeGenerator, ptr %13, i32 0, i32 2
  %15 = load ptr, ptr %14, align 8
  %16 = load i64, ptr @CodeEntryAlignment, align 8
  %17 = trunc i64 %16 to i32
  call void @_ZN14MacroAssembler5alignEj(ptr noundef nonnull align 8 dereferenceable(40) %15, i32 noundef %17)
  call void @_ZN12StubCodeMarkC1EP17StubCodeGeneratorPKcS3_(ptr noundef nonnull align 8 dereferenceable(16) %3, ptr noundef %13, ptr noundef @.str, ptr noundef @.str.4)
  %18 = getelementptr inbounds %class.StubCodeGenerator, ptr %13, i32 0, i32 2
  %19 = load ptr, ptr %18, align 8
  %20 = call noundef ptr @_ZNK17AbstractAssembler2pcEv(ptr noundef nonnull align 8 dereferenceable(24) %19)
  store ptr %20, ptr %4, align 8
  %21 = getelementptr inbounds %class.StubCodeGenerator, ptr %13, i32 0, i32 2
  %22 = load ptr, ptr %21, align 8
  call void @_ZN14MacroAssembler5enterEv(ptr noundef nonnull align 8 dereferenceable(40) %22)
  call void @llvm.memcpy.p0.p0.i64(ptr align 4 %5, ptr align 4 @_ZL7c_rarg0, i64 4, i1 false)
  call void @llvm.memcpy.p0.p0.i64(ptr align 4 %6, ptr align 4 @_ZL7c_rarg1, i64 4, i1 false)
  call void @llvm.memcpy.p0.p0.i64(ptr align 4 %7, ptr align 4 @_ZL7c_rarg2, i64 4, i1 false)
  call void @llvm.memcpy.p0.p0.i64(ptr align 4 %8, ptr align 4 @_ZL2r9, i64 4, i1 false)
  call void @llvm.memcpy.p0.p0.i64(ptr align 4 %9, ptr align 4 %5, i64 4, i1 false)
  call void @llvm.memcpy.p0.p0.i64(ptr align 4 %10, ptr align 4 %6, i64 4, i1 false)
  call void @llvm.memcpy.p0.p0.i64(ptr align 4 %11, ptr align 4 %7, i64 4, i1 false)
  call void @llvm.memcpy.p0.p0.i64(ptr align 4 %12, ptr align 4 %8, i64 4, i1 false)
  %23 = getelementptr inbounds %class.StubCodeGenerator, ptr %13, i32 0, i32 2
  %24 = load ptr, ptr %23, align 8
  %25 = getelementptr inbounds %class.Register, ptr %9, i32 0, i32 0
  %26 = load i32, ptr %25, align 4
  %27 = getelementptr inbounds %class.Register, ptr %10, i32 0, i32 0
  %28 = load i32, ptr %27, align 4
  %29 = getelementptr inbounds %class.Register, ptr %11, i32 0, i32 0
  %30 = load i32, ptr %29, align 4
  %31 = getelementptr inbounds %class.Register, ptr %12, i32 0, i32 0
  %32 = load i32, ptr %31, align 4
  call void @_Z18montgomeryMultiply8RegisterS_S_S_P14MacroAssembler(i32 %26, i32 %28, i32 %30, i32 %32, ptr noundef %24)
  %33 = getelementptr inbounds %class.StubCodeGenerator, ptr %13, i32 0, i32 2
  %34 = load ptr, ptr %33, align 8
  call void @_ZN14MacroAssembler5leaveEv(ptr noundef nonnull align 8 dereferenceable(40) %34)
  %35 = getelementptr inbounds %class.StubCodeGenerator, ptr %13, i32 0, i32 2
  %36 = load ptr, ptr %35, align 8
  call void @_ZN9Assembler3retEi(ptr noundef nonnull align 8 dereferenceable(40) %36, i32 noundef 0)
  %37 = load ptr, ptr %4, align 8
  call void @_ZN12StubCodeMarkD1Ev(ptr noundef nonnull align 8 dereferenceable(16) %3) #5
  ret ptr %37
}